; Function Attrs: mustprogress nofree norecurse nosync nounwind willreturn memory(argmem: readwrite) uwtable
define void @_ZNK11b2EdgeShape11ComputeAABBEP6b2AABBRK11b2Transformi(ptr nocapture noundef nonnull readonly align 8 dereferenceable(49) %this, ptr nocapture noundef writeonly %aabb, ptr nocapture noundef nonnull readonly align 4 dereferenceable(16) %xf, i32 %childIndex) unnamed_addr #5 align 2 {
entry:
  %m_vertex1 = getelementptr inbounds i8, ptr %this, i64 16
  %q.i = getelementptr inbounds i8, ptr %xf, i64 8
  %0 = load <4 x float>, ptr %m_vertex1, align 8
  %y.i = getelementptr inbounds i8, ptr %this, i64 20
  %1 = load <4 x float>, ptr %y.i, align 4
  %m_vertex2 = getelementptr inbounds i8, ptr %this, i64 24
  %2 = load <4 x float>, ptr %m_vertex2, align 8
  %y.i5 = getelementptr inbounds i8, ptr %this, i64 28
  %3 = load <4 x float>, ptr %y.i5, align 4
  %m_radius = getelementptr inbounds i8, ptr %this, i64 12
  %4 = load <4 x float>, ptr %m_radius, align 4
  %5 = load <2 x float>, ptr %q.i, align 4
  %6 = shufflevector <2 x float> %5, <2 x float> poison, <2 x i32> <i32 1, i32 0>
  %7 = extractelement <2 x float> %5, i64 0
  %8 = fneg float %7
  %9 = shufflevector <4 x float> %1, <4 x float> poison, <2 x i32> zeroinitializer
  %10 = insertelement <2 x float> %5, float %8, i64 0
  %11 = fmul <2 x float> %9, %10
  %12 = shufflevector <4 x float> %0, <4 x float> poison, <2 x i32> zeroinitializer
  %13 = tail call <2 x float> @llvm.fmuladd.v2f32(<2 x float> %6, <2 x float> %12, <2 x float> %11)
  %14 = load <2 x float>, ptr %xf, align 4
  %15 = fadd <2 x float> %14, %13
  %16 = shufflevector <4 x float> %3, <4 x float> poison, <2 x i32> zeroinitializer
  %17 = fmul <2 x float> %16, %10
  %18 = shufflevector <4 x float> %2, <4 x float> poison, <2 x i32> zeroinitializer
  %19 = tail call <2 x float> @llvm.fmuladd.v2f32(<2 x float> %6, <2 x float> %18, <2 x float> %17)
  %20 = fadd <2 x float> %14, %19
  %21 = fcmp olt <2 x float> %15, %20
  %22 = select <2 x i1> %21, <2 x float> %15, <2 x float> %20
  %23 = shufflevector <4 x float> %4, <4 x float> poison, <2 x i32> zeroinitializer
  %24 = fsub <2 x float> %22, %23
  store <2 x float> %24, ptr %aabb, align 4
  %25 = fcmp ogt <2 x float> %15, %20
  %26 = select <2 x i1> %25, <2 x float> %15, <2 x float> %20
  %27 = fadd <2 x float> %23, %26
  %upperBound = getelementptr inbounds i8, ptr %aabb, i64 8
  store <2 x float> %27, ptr %upperBound, align 4
  ret void
}